; Function Attrs: mustprogress nounwind uwtable
define dso_local void @_ZN5clang13MangleContext32mangleObjCMethodNameAsSourceNameEPKNS_14ObjCMethodDeclERN4llvm11raw_ostreamE(ptr nocapture noundef nonnull readonly align 8 dereferenceable(128) %0, ptr noundef %1, ptr noundef nonnull align 8 dereferenceable(48) %2) local_unnamed_addr #1 align 2 {
  %4 = alloca %"class.llvm::SmallString", align 8
  %5 = alloca %"class.llvm::raw_svector_ostream", align 8
  %6 = getelementptr inbounds i8, ptr %4, i64 24
  call void @_ZN4llvm15SmallVectorBaseImEC2EPvm(ptr noundef nonnull align 8 dereferenceable(24) %4, ptr noundef nonnull %6, i64 noundef 64) #20
  %7 = getelementptr inbounds nuw i8, ptr %5, i64 8
  store i32 2, ptr %7, align 8
  %8 = getelementptr inbounds nuw i8, ptr %5, i64 40
  store i8 0, ptr %8, align 8
  %9 = getelementptr inbounds nuw i8, ptr %5, i64 44
  store i32 1, ptr %9, align 4
  %10 = getelementptr inbounds nuw i8, ptr %5, i64 16
  call void @llvm.memset.p0.i64(ptr noundef nonnull align 8 dereferenceable(24) %10, i8 0, i64 24, i1 false)
  store ptr getelementptr inbounds inrange(-16, 112) (i8, ptr @_ZTVN4llvm19raw_svector_ostreamE, i64 16), ptr %5, align 8
  %11 = getelementptr inbounds nuw i8, ptr %5, i64 48
  store ptr %4, ptr %11, align 8
  call void @_ZN4llvm11raw_ostream16SetBufferAndModeEPcmNS0_10BufferKindE(ptr noundef nonnull align 8 dereferenceable(48) %5, ptr noundef null, i64 noundef 0, i32 noundef 0) #20
  call void @_ZN5clang13MangleContext20mangleObjCMethodNameEPKNS_14ObjCMethodDeclERN4llvm11raw_ostreamEbb(ptr noundef nonnull align 8 dereferenceable(128) %0, ptr noundef %1, ptr noundef nonnull align 8 dereferenceable(48) %5, i1 noundef zeroext false, i1 noundef zeroext true)
  %12 = load ptr, ptr %11, align 8
  %13 = call noundef i64 @_ZNK4llvm15SmallVectorBaseImE4sizeEv(ptr noundef nonnull align 8 dereferenceable(24) %12) #20
  %14 = call noundef nonnull align 8 dereferenceable(48) ptr @_ZN4llvm11raw_ostreamlsEm(ptr noundef nonnull align 8 dereferenceable(48) %2, i64 noundef %13) #20
  %15 = load ptr, ptr %11, align 8
  %16 = load ptr, ptr %15, align 8
  %17 = call noundef i64 @_ZNK4llvm15SmallVectorBaseImE4sizeEv(ptr noundef nonnull align 8 dereferenceable(24) %15) #20
  %18 = getelementptr inbounds nuw i8, ptr %14, i64 24
  %19 = load ptr, ptr %18, align 8
  %20 = getelementptr inbounds nuw i8, ptr %14, i64 32
  %21 = load ptr, ptr %20, align 8
  %22 = ptrtoint ptr %19 to i64
  %23 = ptrtoint ptr %21 to i64
  %24 = sub i64 %22, %23
  %25 = icmp ugt i64 %17, %24
  br i1 %25, label %26, label %28

26:                                               ; preds = %3
  %27 = call noundef nonnull align 8 dereferenceable(48) ptr @_ZN4llvm11raw_ostream5writeEPKcm(ptr noundef nonnull align 8 dereferenceable(48) %14, ptr noundef %16, i64 noundef %17) #20
  br label %_ZN4llvm11raw_ostreamlsENS_9StringRefE.exit

28:                                               ; preds = %3
  %.not.i = icmp eq i64 %17, 0
  br i1 %.not.i, label %_ZN4llvm11raw_ostreamlsENS_9StringRefE.exit, label %29

29:                                               ; preds = %28
  call void @llvm.memcpy.p0.p0.i64(ptr align 1 %21, ptr align 1 %16, i64 %17, i1 false)
  %30 = load ptr, ptr %20, align 8
  %31 = getelementptr inbounds i8, ptr %30, i64 %17
  store ptr %31, ptr %20, align 8
  br label %_ZN4llvm11raw_ostreamlsENS_9StringRefE.exit

_ZN4llvm11raw_ostreamlsENS_9StringRefE.exit:      ; preds = %26, %28, %29
  call void @_ZN4llvm11raw_ostreamD2Ev(ptr noundef nonnull align 8 dereferenceable(48) %5) #20
  %32 = call noundef i64 @_ZNK4llvm15SmallVectorBaseImE4sizeEv(ptr noundef nonnull align 8 dereferenceable(24) %4) #20
  %33 = load ptr, ptr %4, align 8
  %34 = icmp eq ptr %33, %6
  br i1 %34, label %_ZN4llvm11SmallStringILj64EED2Ev.exit, label %35

35:                                               ; preds = %_ZN4llvm11raw_ostreamlsENS_9StringRefE.exit
  call void @free(ptr noundef %33) #20
  br label %_ZN4llvm11SmallStringILj64EED2Ev.exit

_ZN4llvm11SmallStringILj64EED2Ev.exit:            ; preds = %_ZN4llvm11raw_ostreamlsENS_9StringRefE.exit, %35
  ret void
}